target datalayout = "e-m:e-p270:32:32-p271:32:32-p272:64:64-i64:64-i128:128-f80:128-n8:16:32:64-S128"
target triple = "x86_64-pc-linux-gnu"

%"struct.llvm::DWARFAddressRange" = type { i64, i64, i64 }
%"class.__gnu_cxx::__normal_iterator.3" = type { ptr }
%"struct.llvm::DWARFVerifier::DieRangeInfo" = type { %"class.llvm::DWARFDie", %"class.std::vector", %"class.std::set" }
%"class.llvm::DWARFDie" = type { ptr, ptr }
%"class.std::vector" = type { %"struct.std::_Vector_base" }
%"struct.std::_Vector_base" = type { %"struct.std::_Vector_base<llvm::DWARFAddressRange, std::allocator<llvm::DWARFAddressRange>>::_Vector_impl" }
%"struct.std::_Vector_base<llvm::DWARFAddressRange, std::allocator<llvm::DWARFAddressRange>>::_Vector_impl" = type { %"struct.std::_Vector_base<llvm::DWARFAddressRange, std::allocator<llvm::DWARFAddressRange>>::_Vector_impl_data" }
%"struct.std::_Vector_base<llvm::DWARFAddressRange, std::allocator<llvm::DWARFAddressRange>>::_Vector_impl_data" = type { ptr, ptr, ptr }
%"class.std::set" = type { %"class.std::_Rb_tree" }
%"class.std::_Rb_tree" = type { %"struct.std::_Rb_tree<llvm::DWARFVerifier::DieRangeInfo, llvm::DWARFVerifier::DieRangeInfo, std::_Identity<llvm::DWARFVerifier::DieRangeInfo>, std::less<llvm::DWARFVerifier::DieRangeInfo>>::_Rb_tree_impl" }
%"struct.std::_Rb_tree<llvm::DWARFVerifier::DieRangeInfo, llvm::DWARFVerifier::DieRangeInfo, std::_Identity<llvm::DWARFVerifier::DieRangeInfo>, std::less<llvm::DWARFVerifier::DieRangeInfo>>::_Rb_tree_impl" = type { [8 x i8], %"struct.std::_Rb_tree_header" }
%"struct.std::_Rb_tree_header" = type { %"struct.std::_Rb_tree_node_base", i64 }
%"struct.std::_Rb_tree_node_base" = type { i32, ptr, ptr, ptr }

; Function Attrs: mustprogress nounwind uwtable
define linkonce_odr hidden noundef nonnull align 8 dereferenceable(8) ptr @_ZNK9__gnu_cxx17__normal_iteratorIPKN4llvm17DWARFAddressRangeESt6vectorIS2_SaIS2_EEE4baseEv(ptr noundef nonnull align 8 dereferenceable(8) %0) #0 comdat align 2 {
  %2 = alloca ptr, align 8
  store ptr %0, ptr %2, align 8
  %3 = load ptr, ptr %2, align 8
  %4 = getelementptr inbounds nuw %"class.__gnu_cxx::__normal_iterator.3", ptr %3, i32 0, i32 0
  ret ptr %4
}

; Function Attrs: mustprogress nounwind uwtable
define linkonce_odr hidden void @_ZN9__gnu_cxx17__normal_iteratorIPKN4llvm17DWARFAddressRangeESt6vectorIS2_SaIS2_EEEC2ERKS4_(ptr noundef nonnull align 8 dereferenceable(8) %0, ptr noundef nonnull align 8 dereferenceable(8) %1) unnamed_addr #0 comdat align 2 {
  %3 = alloca ptr, align 8
  %4 = alloca ptr, align 8
  store ptr %0, ptr %3, align 8
  store ptr %1, ptr %4, align 8
  %5 = load ptr, ptr %3, align 8
  %6 = getelementptr inbounds nuw %"class.__gnu_cxx::__normal_iterator.3", ptr %5, i32 0, i32 0
  %7 = load ptr, ptr %4, align 8
  %8 = load ptr, ptr %7, align 8
  store ptr %8, ptr %6, align 8
  ret void
}

; Function Attrs: mustprogress nounwind uwtable
define linkonce_odr hidden noundef nonnull align 8 dereferenceable(8) ptr @_ZN9__gnu_cxx17__normal_iteratorIPKN4llvm17DWARFAddressRangeESt6vectorIS2_SaIS2_EEEppEv(ptr noundef nonnull align 8 dereferenceable(8) %0) #0 comdat align 2 {
  %2 = alloca ptr, align 8
  store ptr %0, ptr %2, align 8
  %3 = load ptr, ptr %2, align 8
  %4 = getelementptr inbounds nuw %"class.__gnu_cxx::__normal_iterator.3", ptr %3, i32 0, i32 0
  %5 = load ptr, ptr %4, align 8
  %6 = getelementptr inbounds %"struct.llvm::DWARFAddressRange", ptr %5, i32 1
  store ptr %6, ptr %4, align 8
  ret ptr %3
}

; Function Attrs: mustprogress nounwind uwtable
define linkonce_odr hidden noundef zeroext i1 @_ZNK4llvm17DWARFAddressRange10intersectsERKS0_(ptr noundef nonnull align 8 dereferenceable(24) %0, ptr noundef nonnull align 8 dereferenceable(24) %1) #0 comdat align 2 {
  %3 = alloca i1, align 1
  %4 = alloca ptr, align 8
  %5 = alloca ptr, align 8
  store ptr %0, ptr %4, align 8
  store ptr %1, ptr %5, align 8
  %6 = load ptr, ptr %4, align 8
  %7 = getelementptr inbounds nuw %"struct.llvm::DWARFAddressRange", ptr %6, i32 0, i32 2
  %8 = load i64, ptr %7, align 8
  %9 = load ptr, ptr %5, align 8
  %10 = getelementptr inbounds nuw %"struct.llvm::DWARFAddressRange", ptr %9, i32 0, i32 2
  %11 = load i64, ptr %10, align 8
  %12 = icmp ne i64 %8, %11
  br i1 %12, label %13, label %14

13:                                               ; preds = %2
  store i1 false, ptr %3, align 1
  br label %45

14:                                               ; preds = %2
  %15 = getelementptr inbounds nuw %"struct.llvm::DWARFAddressRange", ptr %6, i32 0, i32 0
  %16 = load i64, ptr %15, align 8
  %17 = getelementptr inbounds nuw %"struct.llvm::DWARFAddressRange", ptr %6, i32 0, i32 1
  %18 = load i64, ptr %17, align 8
  %19 = icmp eq i64 %16, %18
  br i1 %19, label %28, label %20

20:                                               ; preds = %14
  %21 = load ptr, ptr %5, align 8
  %22 = getelementptr inbounds nuw %"struct.llvm::DWARFAddressRange", ptr %21, i32 0, i32 0
  %23 = load i64, ptr %22, align 8
  %24 = load ptr, ptr %5, align 8
  %25 = getelementptr inbounds nuw %"struct.llvm::DWARFAddressRange", ptr %24, i32 0, i32 1
  %26 = load i64, ptr %25, align 8
  %27 = icmp eq i64 %23, %26
  br i1 %27, label %28, label %29

28:                                               ; preds = %20, %14
  store i1 false, ptr %3, align 1
  br label %45

29:                                               ; preds = %20
  %30 = getelementptr inbounds nuw %"struct.llvm::DWARFAddressRange", ptr %6, i32 0, i32 0
  %31 = load i64, ptr %30, align 8
  %32 = load ptr, ptr %5, align 8
  %33 = getelementptr inbounds nuw %"struct.llvm::DWARFAddressRange", ptr %32, i32 0, i32 1
  %34 = load i64, ptr %33, align 8
  %35 = icmp ult i64 %31, %34
  br i1 %35, label %36, label %43

36:                                               ; preds = %29
  %37 = load ptr, ptr %5, align 8
  %38 = getelementptr inbounds nuw %"struct.llvm::DWARFAddressRange", ptr %37, i32 0, i32 0
  %39 = load i64, ptr %38, align 8
  %40 = getelementptr inbounds nuw %"struct.llvm::DWARFAddressRange", ptr %6, i32 0, i32 1
  %41 = load i64, ptr %40, align 8
  %42 = icmp ult i64 %39, %41
  br label %43

43:                                               ; preds = %36, %29
  %44 = phi i1 [ false, %29 ], [ %42, %36 ]
  store i1 %44, ptr %3, align 1
  br label %45

45:                                               ; preds = %43, %28, %13
  %46 = load i1, ptr %3, align 1
  ret i1 %46
}

; Function Attrs: mustprogress nounwind uwtable
define linkonce_odr hidden noundef nonnull align 8 dereferenceable(24) ptr @_ZNK9__gnu_cxx17__normal_iteratorIPKN4llvm17DWARFAddressRangeESt6vectorIS2_SaIS2_EEEdeEv(ptr noundef nonnull align 8 dereferenceable(8) %0) #0 comdat align 2 {
  %2 = alloca ptr, align 8
  store ptr %0, ptr %2, align 8
  %3 = load ptr, ptr %2, align 8
  %4 = getelementptr inbounds nuw %"class.__gnu_cxx::__normal_iterator.3", ptr %3, i32 0, i32 0
  %5 = load ptr, ptr %4, align 8
  ret ptr %5
}

; Function Attrs: mustprogress nounwind uwtable
define linkonce_odr hidden noundef ptr @_ZNK9__gnu_cxx17__normal_iteratorIPKN4llvm17DWARFAddressRangeESt6vectorIS2_SaIS2_EEEptEv(ptr noundef nonnull align 8 dereferenceable(8) %0) #0 comdat align 2 {
  %2 = alloca ptr, align 8
  store ptr %0, ptr %2, align 8
  %3 = load ptr, ptr %2, align 8
  %4 = getelementptr inbounds nuw %"class.__gnu_cxx::__normal_iterator.3", ptr %3, i32 0, i32 0
  %5 = load ptr, ptr %4, align 8
  ret ptr %5
}

; Function Attrs: mustprogress nounwind uwtable
define linkonce_odr noundef zeroext i1 @_ZN9__gnu_cxxneIPKN4llvm17DWARFAddressRangeESt6vectorIS2_SaIS2_EEEEbRKNS_17__normal_iteratorIT_T0_EESD_(ptr noundef nonnull align 8 dereferenceable(8) %0, ptr noundef nonnull align 8 dereferenceable(8) %1) #0 comdat {
  %3 = alloca ptr, align 8
  %4 = alloca ptr, align 8
  store ptr %0, ptr %3, align 8
  store ptr %1, ptr %4, align 8
  %5 = load ptr, ptr %3, align 8
  %6 = call noundef nonnull align 8 dereferenceable(8) ptr @_ZNK9__gnu_cxx17__normal_iteratorIPKN4llvm17DWARFAddressRangeESt6vectorIS2_SaIS2_EEE4baseEv(ptr noundef nonnull align 8 dereferenceable(8) %5) #14
  %7 = load ptr, ptr %6, align 8
  %8 = load ptr, ptr %4, align 8
  %9 = call noundef nonnull align 8 dereferenceable(8) ptr @_ZNK9__gnu_cxx17__normal_iteratorIPKN4llvm17DWARFAddressRangeESt6vectorIS2_SaIS2_EEE4baseEv(ptr noundef nonnull align 8 dereferenceable(8) %8) #14
  %10 = load ptr, ptr %9, align 8
  %11 = icmp ne ptr %7, %10
  ret i1 %11
}

; Function Attrs: mustprogress nounwind uwtable
define linkonce_odr hidden ptr @_ZNKSt6vectorIN4llvm17DWARFAddressRangeESaIS1_EE3endEv(ptr noundef nonnull align 8 dereferenceable(24) %0) #0 comdat align 2 {
  %2 = alloca %"class.__gnu_cxx::__normal_iterator.3", align 8
  %3 = alloca ptr, align 8
  store ptr %0, ptr %3, align 8
  %4 = load ptr, ptr %3, align 8
  %5 = getelementptr inbounds nuw %"struct.std::_Vector_base", ptr %4, i32 0, i32 0
  %6 = getelementptr inbounds nuw %"struct.std::_Vector_base<llvm::DWARFAddressRange, std::allocator<llvm::DWARFAddressRange>>::_Vector_impl_data", ptr %5, i32 0, i32 1
  call void @_ZN9__gnu_cxx17__normal_iteratorIPKN4llvm17DWARFAddressRangeESt6vectorIS2_SaIS2_EEEC2ERKS4_(ptr noundef nonnull align 8 dereferenceable(8) %2, ptr noundef nonnull align 8 dereferenceable(8) %6) #14
  %7 = getelementptr inbounds nuw %"class.__gnu_cxx::__normal_iterator.3", ptr %2, i32 0, i32 0
  %8 = load ptr, ptr %7, align 8
  ret ptr %8
}

; Function Attrs: mustprogress nounwind uwtable
define linkonce_odr hidden ptr @_ZNKSt6vectorIN4llvm17DWARFAddressRangeESaIS1_EE5beginEv(ptr noundef nonnull align 8 dereferenceable(24) %0) #0 comdat align 2 {
  %2 = alloca %"class.__gnu_cxx::__normal_iterator.3", align 8
  %3 = alloca ptr, align 8
  store ptr %0, ptr %3, align 8
  %4 = load ptr, ptr %3, align 8
  %5 = getelementptr inbounds nuw %"struct.std::_Vector_base", ptr %4, i32 0, i32 0
  %6 = getelementptr inbounds nuw %"struct.std::_Vector_base<llvm::DWARFAddressRange, std::allocator<llvm::DWARFAddressRange>>::_Vector_impl_data", ptr %5, i32 0, i32 0
  call void @_ZN9__gnu_cxx17__normal_iteratorIPKN4llvm17DWARFAddressRangeESt6vectorIS2_SaIS2_EEEC2ERKS4_(ptr noundef nonnull align 8 dereferenceable(8) %2, ptr noundef nonnull align 8 dereferenceable(8) %6) #14
  %7 = getelementptr inbounds nuw %"class.__gnu_cxx::__normal_iterator.3", ptr %2, i32 0, i32 0
  %8 = load ptr, ptr %7, align 8
  ret ptr %8
}

; Function Attrs: mustprogress nounwind uwtable
define dso_local noundef zeroext i1 @_ZNK4llvm13DWARFVerifier12DieRangeInfo10intersectsERKS1_(ptr noundef nonnull align 8 dereferenceable(88) %0, ptr noundef nonnull align 8 dereferenceable(88) %1) #0 align 2 {
  %3 = alloca i1, align 1
  %4 = alloca ptr, align 8
  %5 = alloca ptr, align 8
  %6 = alloca %"class.__gnu_cxx::__normal_iterator.3", align 8
  %7 = alloca %"class.__gnu_cxx::__normal_iterator.3", align 8
  %8 = alloca %"class.__gnu_cxx::__normal_iterator.3", align 8
  %9 = alloca %"class.__gnu_cxx::__normal_iterator.3", align 8
  store ptr %0, ptr %4, align 8
  store ptr %1, ptr %5, align 8
  %10 = load ptr, ptr %4, align 8
  %11 = getelementptr inbounds nuw %"struct.llvm::DWARFVerifier::DieRangeInfo", ptr %10, i32 0, i32 1
  %12 = call ptr @_ZNKSt6vectorIN4llvm17DWARFAddressRangeESaIS1_EE5beginEv(ptr noundef nonnull align 8 dereferenceable(24) %11) #14
  %13 = getelementptr inbounds nuw %"class.__gnu_cxx::__normal_iterator.3", ptr %6, i32 0, i32 0
  store ptr %12, ptr %13, align 8
  %14 = getelementptr inbounds nuw %"struct.llvm::DWARFVerifier::DieRangeInfo", ptr %10, i32 0, i32 1
  %15 = call ptr @_ZNKSt6vectorIN4llvm17DWARFAddressRangeESaIS1_EE3endEv(ptr noundef nonnull align 8 dereferenceable(24) %14) #14
  %16 = getelementptr inbounds nuw %"class.__gnu_cxx::__normal_iterator.3", ptr %7, i32 0, i32 0
  store ptr %15, ptr %16, align 8
  %17 = load ptr, ptr %5, align 8
  %18 = getelementptr inbounds nuw %"struct.llvm::DWARFVerifier::DieRangeInfo", ptr %17, i32 0, i32 1
  %19 = call ptr @_ZNKSt6vectorIN4llvm17DWARFAddressRangeESaIS1_EE5beginEv(ptr noundef nonnull align 8 dereferenceable(24) %18) #14
  %20 = getelementptr inbounds nuw %"class.__gnu_cxx::__normal_iterator.3", ptr %8, i32 0, i32 0
  store ptr %19, ptr %20, align 8
  %21 = load ptr, ptr %5, align 8
  %22 = getelementptr inbounds nuw %"struct.llvm::DWARFVerifier::DieRangeInfo", ptr %21, i32 0, i32 1
  %23 = call ptr @_ZNKSt6vectorIN4llvm17DWARFAddressRangeESaIS1_EE3endEv(ptr noundef nonnull align 8 dereferenceable(24) %22) #14
  %24 = getelementptr inbounds nuw %"class.__gnu_cxx::__normal_iterator.3", ptr %9, i32 0, i32 0
  store ptr %23, ptr %24, align 8
  br label %25

25:                                               ; preds = %48, %2
  %26 = call noundef zeroext i1 @_ZN9__gnu_cxxneIPKN4llvm17DWARFAddressRangeESt6vectorIS2_SaIS2_EEEEbRKNS_17__normal_iteratorIT_T0_EESD_(ptr noundef nonnull align 8 dereferenceable(8) %6, ptr noundef nonnull align 8 dereferenceable(8) %7) #14
  br i1 %26, label %27, label %29

27:                                               ; preds = %25
  %28 = call noundef zeroext i1 @_ZN9__gnu_cxxneIPKN4llvm17DWARFAddressRangeESt6vectorIS2_SaIS2_EEEEbRKNS_17__normal_iteratorIT_T0_EESD_(ptr noundef nonnull align 8 dereferenceable(8) %8, ptr noundef nonnull align 8 dereferenceable(8) %9) #14
  br label %29

29:                                               ; preds = %27, %25
  %30 = phi i1 [ false, %25 ], [ %28, %27 ]
  br i1 %30, label %31, label %49

31:                                               ; preds = %29
  %32 = call noundef ptr @_ZNK9__gnu_cxx17__normal_iteratorIPKN4llvm17DWARFAddressRangeESt6vectorIS2_SaIS2_EEEptEv(ptr noundef nonnull align 8 dereferenceable(8) %6) #14
  %33 = call noundef nonnull align 8 dereferenceable(24) ptr @_ZNK9__gnu_cxx17__normal_iteratorIPKN4llvm17DWARFAddressRangeESt6vectorIS2_SaIS2_EEEdeEv(ptr noundef nonnull align 8 dereferenceable(8) %8) #14
  %34 = call noundef zeroext i1 @_ZNK4llvm17DWARFAddressRange10intersectsERKS0_(ptr noundef nonnull align 8 dereferenceable(24) %32, ptr noundef nonnull align 8 dereferenceable(24) %33)
  br i1 %34, label %35, label %36

35:                                               ; preds = %31
  store i1 true, ptr %3, align 1
  br label %50

36:                                               ; preds = %31
  %37 = call noundef ptr @_ZNK9__gnu_cxx17__normal_iteratorIPKN4llvm17DWARFAddressRangeESt6vectorIS2_SaIS2_EEEptEv(ptr noundef nonnull align 8 dereferenceable(8) %6) #14
  %38 = getelementptr inbounds nuw %"struct.llvm::DWARFAddressRange", ptr %37, i32 0, i32 0
  %39 = load i64, ptr %38, align 8
  %40 = call noundef ptr @_ZNK9__gnu_cxx17__normal_iteratorIPKN4llvm17DWARFAddressRangeESt6vectorIS2_SaIS2_EEEptEv(ptr noundef nonnull align 8 dereferenceable(8) %8) #14
  %41 = getelementptr inbounds nuw %"struct.llvm::DWARFAddressRange", ptr %40, i32 0, i32 0
  %42 = load i64, ptr %41, align 8
  %43 = icmp ult i64 %39, %42
  br i1 %43, label %44, label %46

44:                                               ; preds = %36
  %45 = call noundef nonnull align 8 dereferenceable(8) ptr @_ZN9__gnu_cxx17__normal_iteratorIPKN4llvm17DWARFAddressRangeESt6vectorIS2_SaIS2_EEEppEv(ptr noundef nonnull align 8 dereferenceable(8) %6) #14
  br label %48

46:                                               ; preds = %36
  %47 = call noundef nonnull align 8 dereferenceable(8) ptr @_ZN9__gnu_cxx17__normal_iteratorIPKN4llvm17DWARFAddressRangeESt6vectorIS2_SaIS2_EEEppEv(ptr noundef nonnull align 8 dereferenceable(8) %8) #14
  br label %48

48:                                               ; preds = %46, %44
  br label %25, !llvm.loop !6

49:                                               ; preds = %29
  store i1 false, ptr %3, align 1
  br label %50

50:                                               ; preds = %49, %35
  %51 = load i1, ptr %3, align 1
  ret i1 %51
}