; Function Attrs: mustprogress nofree norecurse nosync nounwind willreturn memory(read, inaccessiblemem: none) uwtable
define dso_local noundef zeroext i1 @_ZNK4llvm13DWARFVerifier12DieRangeInfo10intersectsERKS1_(ptr nocapture noundef nonnull readonly align 8 dereferenceable(88) %0, ptr nocapture noundef nonnull readonly align 8 dereferenceable(88) %1) local_unnamed_addr #2 align 2 {
  %3 = getelementptr inbounds nuw i8, ptr %0, i64 16
  %4 = load ptr, ptr %3, align 8
  %5 = getelementptr inbounds i8, ptr %0, i64 24
  %6 = load ptr, ptr %5, align 8
  %7 = getelementptr inbounds nuw i8, ptr %1, i64 16
  %8 = load ptr, ptr %7, align 8
  %9 = getelementptr inbounds i8, ptr %1, i64 24
  %10 = load ptr, ptr %9, align 8
  %11 = icmp ne ptr %4, %6
  %12 = icmp ne ptr %8, %10
  %or.cond14 = select i1 %11, i1 %12, i1 false
  br i1 %or.cond14, label %.lr.ph, label %.critedge

.lr.ph:                                           ; preds = %2, %_ZNK4llvm17DWARFAddressRange10intersectsERKS0_.exit.thread
  %.sroa.09.016 = phi ptr [ %.sroa.09.1, %_ZNK4llvm17DWARFAddressRange10intersectsERKS0_.exit.thread ], [ %4, %2 ]
  %.sroa.04.015 = phi ptr [ %.sroa.04.1, %_ZNK4llvm17DWARFAddressRange10intersectsERKS0_.exit.thread ], [ %8, %2 ]
  %13 = getelementptr inbounds nuw i8, ptr %.sroa.09.016, i64 16
  %14 = load i64, ptr %13, align 8
  %15 = getelementptr inbounds nuw i8, ptr %.sroa.04.015, i64 16
  %16 = load i64, ptr %15, align 8
  %.not.i = icmp eq i64 %14, %16
  %.pre = load i64, ptr %.sroa.09.016, align 8
  br i1 %.not.i, label %17, label %.lr.ph._ZNK4llvm17DWARFAddressRange10intersectsERKS0_.exit.thread_crit_edge

.lr.ph._ZNK4llvm17DWARFAddressRange10intersectsERKS0_.exit.thread_crit_edge: ; preds = %.lr.ph
  %.pre19 = load i64, ptr %.sroa.04.015, align 8
  br label %_ZNK4llvm17DWARFAddressRange10intersectsERKS0_.exit.thread

17:                                               ; preds = %.lr.ph
  %18 = getelementptr inbounds nuw i8, ptr %.sroa.09.016, i64 8
  %19 = load i64, ptr %18, align 8
  %20 = icmp eq i64 %.pre, %19
  %.pre20 = load i64, ptr %.sroa.04.015, align 8
  br i1 %20, label %_ZNK4llvm17DWARFAddressRange10intersectsERKS0_.exit.thread, label %21

21:                                               ; preds = %17
  %22 = getelementptr inbounds nuw i8, ptr %.sroa.04.015, i64 8
  %23 = load i64, ptr %22, align 8
  %24 = icmp eq i64 %.pre20, %23
  br i1 %24, label %_ZNK4llvm17DWARFAddressRange10intersectsERKS0_.exit.thread, label %_ZNK4llvm17DWARFAddressRange10intersectsERKS0_.exit

_ZNK4llvm17DWARFAddressRange10intersectsERKS0_.exit: ; preds = %21
  %25 = icmp ult i64 %.pre, %23
  %26 = icmp ult i64 %.pre20, %19
  %spec.select.i = and i1 %26, %25
  br i1 %spec.select.i, label %.critedge, label %_ZNK4llvm17DWARFAddressRange10intersectsERKS0_.exit.thread

_ZNK4llvm17DWARFAddressRange10intersectsERKS0_.exit.thread: ; preds = %.lr.ph._ZNK4llvm17DWARFAddressRange10intersectsERKS0_.exit.thread_crit_edge, %17, %21, %_ZNK4llvm17DWARFAddressRange10intersectsERKS0_.exit
  %27 = phi i64 [ %.pre19, %.lr.ph._ZNK4llvm17DWARFAddressRange10intersectsERKS0_.exit.thread_crit_edge ], [ %.pre20, %17 ], [ %.pre20, %21 ], [ %.pre20, %_ZNK4llvm17DWARFAddressRange10intersectsERKS0_.exit ]
  %28 = icmp ult i64 %.pre, %27
  %.sroa.04.1.idx = select i1 %28, i64 0, i64 24
  %.sroa.04.1 = getelementptr inbounds i8, ptr %.sroa.04.015, i64 %.sroa.04.1.idx
  %.sroa.09.1.idx = select i1 %28, i64 24, i64 0
  %.sroa.09.1 = getelementptr inbounds i8, ptr %.sroa.09.016, i64 %.sroa.09.1.idx
  %29 = icmp ne ptr %.sroa.09.1, %6
  %30 = icmp ne ptr %.sroa.04.1, %10
  %or.cond = select i1 %29, i1 %30, i1 false
  br i1 %or.cond, label %.lr.ph, label %.critedge, !llvm.loop !6

.critedge:                                        ; preds = %_ZNK4llvm17DWARFAddressRange10intersectsERKS0_.exit, %_ZNK4llvm17DWARFAddressRange10intersectsERKS0_.exit.thread, %2
  %or.cond.lcssa = phi i1 [ false, %2 ], [ false, %_ZNK4llvm17DWARFAddressRange10intersectsERKS0_.exit.thread ], [ true, %_ZNK4llvm17DWARFAddressRange10intersectsERKS0_.exit ]
  ret i1 %or.cond.lcssa
}